target datalayout = "e-m:e-p270:32:32-p271:32:32-p272:64:64-i64:64-i128:128-f80:128-n8:16:32:64-S128"
target triple = "x86_64-pc-linux-gnu"

%"class.pbrt::SquareMatrix" = type { [3 x [3 x float]] }
%"class.pbrt::XYZ" = type { float, float, float }
%"class.pstd::vector" = type { %"class.pstd::pmr::polymorphic_allocator", ptr, i64, i64 }
%"class.pstd::pmr::polymorphic_allocator" = type { ptr }
%"class.pstd::span" = type { ptr, i64 }
%"class.pbrt::DenselySampledSpectrum" = type { i32, i32, %"class.pstd::vector" }
%"class.pbrt::RGB" = type { float, float, float }
%"class.pbrt::RGBColorSpace" = type { %"class.pbrt::Point2", %"class.pbrt::Point2", %"class.pbrt::Point2", %"class.pbrt::Point2", %"class.pbrt::DenselySampledSpectrum", %"class.pbrt::SquareMatrix", %"class.pbrt::SquareMatrix", ptr }
%"class.pbrt::Point2" = type { %"class.pbrt::Tuple2" }
%"class.pbrt::Tuple2" = type { float, float }

; Function Attrs: mustprogress nounwind uwtable
define linkonce_odr dso_local void @_ZN4pstd4spanIKfEC2EPS1_m(ptr noundef nonnull align 8 dereferenceable(16) %0, ptr noundef %1, i64 noundef %2) unnamed_addr #3 comdat align 2 {
  %4 = alloca ptr, align 8
  %5 = alloca ptr, align 8
  %6 = alloca i64, align 8
  store ptr %0, ptr %4, align 8, !tbaa !65
  store ptr %1, ptr %5, align 8, !tbaa !48
  store i64 %2, ptr %6, align 8, !tbaa !58
  %7 = load ptr, ptr %4, align 8
  %8 = getelementptr inbounds nuw %"class.pstd::span", ptr %7, i32 0, i32 0
  %9 = load ptr, ptr %5, align 8, !tbaa !48
  store ptr %9, ptr %8, align 8, !tbaa !67
  %10 = getelementptr inbounds nuw %"class.pstd::span", ptr %7, i32 0, i32 1
  %11 = load i64, ptr %6, align 8, !tbaa !58
  store i64 %11, ptr %10, align 8, !tbaa !69
  ret void
}

; Function Attrs: mustprogress nounwind uwtable
define linkonce_odr dso_local void @_ZN4pstd4spanIKfEC2ILm3EEERAT__S1_(ptr noundef nonnull align 8 dereferenceable(16) %0, ptr noundef nonnull align 4 dereferenceable(12) %1) unnamed_addr #3 comdat align 2 {
  %3 = alloca ptr, align 8
  %4 = alloca ptr, align 8
  store ptr %0, ptr %3, align 8, !tbaa !65
  store ptr %1, ptr %4, align 8, !tbaa !48
  %5 = load ptr, ptr %3, align 8
  %6 = load ptr, ptr %4, align 8, !tbaa !48
  %7 = getelementptr inbounds [3 x float], ptr %6, i64 0, i64 0
  call void @_ZN4pstd4spanIKfEC2EPS1_m(ptr noundef nonnull align 8 dereferenceable(16) %5, ptr noundef %7, i64 noundef 3)
  ret void
}

; Function Attrs: mustprogress nounwind uwtable
define linkonce_odr dso_local noundef float @_ZNK4pbrt3XYZixEi(ptr noundef nonnull align 4 dereferenceable(12) %0, i32 noundef %1) #3 comdat align 2 {
  %3 = alloca float, align 4
  %4 = alloca ptr, align 8
  %5 = alloca i32, align 4
  store ptr %0, ptr %4, align 8, !tbaa !26
  store i32 %1, ptr %5, align 4, !tbaa !49
  %6 = load ptr, ptr %4, align 8
  br label %7

7:                                                ; preds = %2
  br label %8

8:                                                ; preds = %7
  %9 = load i32, ptr %5, align 4, !tbaa !49
  %10 = icmp eq i32 %9, 0
  br i1 %10, label %11, label %14

11:                                               ; preds = %8
  %12 = getelementptr inbounds nuw %"class.pbrt::XYZ", ptr %6, i32 0, i32 0
  %13 = load float, ptr %12, align 4, !tbaa !28
  store float %13, ptr %3, align 4
  br label %24

14:                                               ; preds = %8
  %15 = load i32, ptr %5, align 4, !tbaa !49
  %16 = icmp eq i32 %15, 1
  br i1 %16, label %17, label %20

17:                                               ; preds = %14
  %18 = getelementptr inbounds nuw %"class.pbrt::XYZ", ptr %6, i32 0, i32 1
  %19 = load float, ptr %18, align 4, !tbaa !30
  store float %19, ptr %3, align 4
  br label %24

20:                                               ; preds = %14
  br label %21

21:                                               ; preds = %20
  %22 = getelementptr inbounds nuw %"class.pbrt::XYZ", ptr %6, i32 0, i32 2
  %23 = load float, ptr %22, align 4, !tbaa !31
  store float %23, ptr %3, align 4
  br label %24

24:                                               ; preds = %21, %17, %11
  %25 = load float, ptr %3, align 4
  ret float %25
}

; Function Attrs: mustprogress nounwind uwtable
define linkonce_odr dso_local noundef nonnull align 4 dereferenceable(4) ptr @_ZN4pstd4spanIKfEixEm(ptr noundef nonnull align 8 dereferenceable(16) %0, i64 noundef %1) #3 comdat align 2 {
  %3 = alloca ptr, align 8
  %4 = alloca i64, align 8
  store ptr %0, ptr %3, align 8, !tbaa !65
  store i64 %1, ptr %4, align 8, !tbaa !58
  %5 = load ptr, ptr %3, align 8
  br label %6

6:                                                ; preds = %2
  br label %7

7:                                                ; preds = %6
  %8 = getelementptr inbounds nuw %"class.pstd::span", ptr %5, i32 0, i32 0
  %9 = load ptr, ptr %8, align 8, !tbaa !67
  %10 = load i64, ptr %4, align 8, !tbaa !58
  %11 = getelementptr inbounds nuw float, ptr %9, i64 %10
  ret ptr %11
}

; Function Attrs: mustprogress uwtable
define available_externally { ptr, i64 } @_ZNK4pbrt12SquareMatrixILi3EEixEi(ptr noundef nonnull align 4 dereferenceable(36) %0, i32 noundef %1) #1 align 2 {
  %3 = alloca %"class.pstd::span", align 8
  %4 = alloca ptr, align 8
  %5 = alloca i32, align 4
  store ptr %0, ptr %4, align 8, !tbaa !4
  store i32 %1, ptr %5, align 4, !tbaa !49
  %6 = load ptr, ptr %4, align 8
  %7 = getelementptr inbounds nuw %"class.pbrt::SquareMatrix", ptr %6, i32 0, i32 0
  %8 = load i32, ptr %5, align 4, !tbaa !49
  %9 = sext i32 %8 to i64
  %10 = getelementptr inbounds [3 x [3 x float]], ptr %7, i64 0, i64 %9
  call void @_ZN4pstd4spanIKfEC2ILm3EEERAT__S1_(ptr noundef nonnull align 8 dereferenceable(16) %3, ptr noundef nonnull align 4 dereferenceable(12) %10)
  %11 = load { ptr, i64 }, ptr %3, align 8
  ret { ptr, i64 } %11
}

; Function Attrs: mustprogress nounwind uwtable
define linkonce_odr dso_local noundef nonnull align 4 dereferenceable(4) ptr @_ZN4pbrt3RGBixEi(ptr noundef nonnull align 4 dereferenceable(12) %0, i32 noundef %1) #3 comdat align 2 {
  %3 = alloca ptr, align 8
  %4 = alloca ptr, align 8
  %5 = alloca i32, align 4
  store ptr %0, ptr %4, align 8, !tbaa !139
  store i32 %1, ptr %5, align 4, !tbaa !49
  %6 = load ptr, ptr %4, align 8
  br label %7

7:                                                ; preds = %2
  br label %8

8:                                                ; preds = %7
  %9 = load i32, ptr %5, align 4, !tbaa !49
  %10 = icmp eq i32 %9, 0
  br i1 %10, label %11, label %13

11:                                               ; preds = %8
  %12 = getelementptr inbounds nuw %"class.pbrt::RGB", ptr %6, i32 0, i32 0
  store ptr %12, ptr %3, align 8
  br label %21

13:                                               ; preds = %8
  %14 = load i32, ptr %5, align 4, !tbaa !49
  %15 = icmp eq i32 %14, 1
  br i1 %15, label %16, label %18

16:                                               ; preds = %13
  %17 = getelementptr inbounds nuw %"class.pbrt::RGB", ptr %6, i32 0, i32 1
  store ptr %17, ptr %3, align 8
  br label %21

18:                                               ; preds = %13
  br label %19

19:                                               ; preds = %18
  %20 = getelementptr inbounds nuw %"class.pbrt::RGB", ptr %6, i32 0, i32 2
  store ptr %20, ptr %3, align 8
  br label %21

21:                                               ; preds = %19, %16, %11
  %22 = load ptr, ptr %3, align 8
  ret ptr %22
}

; Function Attrs: mustprogress nounwind uwtable
define linkonce_odr dso_local void @_ZN4pbrt3RGBC2Ev(ptr noundef nonnull align 4 dereferenceable(12) %0) unnamed_addr #3 comdat align 2 {
  %2 = alloca ptr, align 8
  store ptr %0, ptr %2, align 8, !tbaa !139
  %3 = load ptr, ptr %2, align 8
  %4 = getelementptr inbounds nuw %"class.pbrt::RGB", ptr %3, i32 0, i32 0
  store float 0.000000e+00, ptr %4, align 4, !tbaa !132
  %5 = getelementptr inbounds nuw %"class.pbrt::RGB", ptr %3, i32 0, i32 1
  store float 0.000000e+00, ptr %5, align 4, !tbaa !134
  %6 = getelementptr inbounds nuw %"class.pbrt::RGB", ptr %3, i32 0, i32 2
  store float 0.000000e+00, ptr %6, align 4, !tbaa !135
  ret void
}

; Function Attrs: inlinehint mustprogress uwtable
define linkonce_odr dso_local { <2 x float>, float } @_ZN4pbrt3MulINS_3RGBELi3ENS_3XYZEEET_RKNS_12SquareMatrixIXT0_EEERKT1_(ptr noundef nonnull align 4 dereferenceable(36) %0, ptr noundef nonnull align 4 dereferenceable(12) %1) #4 comdat {
  %3 = alloca %"class.pbrt::RGB", align 4
  %4 = alloca ptr, align 8
  %5 = alloca ptr, align 8
  %6 = alloca i32, align 4
  %7 = alloca i32, align 4
  %8 = alloca i32, align 4
  %9 = alloca %"class.pstd::span", align 8
  %10 = alloca { <2 x float>, float }, align 8
  store ptr %0, ptr %4, align 8, !tbaa !4
  store ptr %1, ptr %5, align 8, !tbaa !26
  call void @_ZN4pbrt3RGBC2Ev(ptr noundef nonnull align 4 dereferenceable(12) %3) #12
  call void @llvm.lifetime.start.p0(i64 4, ptr %6) #12
  store i32 0, ptr %6, align 4, !tbaa !49
  br label %11

11:                                               ; preds = %46, %2
  %12 = load i32, ptr %6, align 4, !tbaa !49
  %13 = icmp slt i32 %12, 3
  br i1 %13, label %15, label %14

14:                                               ; preds = %11
  store i32 2, ptr %7, align 4
  call void @llvm.lifetime.end.p0(i64 4, ptr %6) #12
  br label %49

15:                                               ; preds = %11
  %16 = load i32, ptr %6, align 4, !tbaa !49
  %17 = call noundef nonnull align 4 dereferenceable(4) ptr @_ZN4pbrt3RGBixEi(ptr noundef nonnull align 4 dereferenceable(12) %3, i32 noundef %16)
  store float 0.000000e+00, ptr %17, align 4, !tbaa !9
  call void @llvm.lifetime.start.p0(i64 4, ptr %8) #12
  store i32 0, ptr %8, align 4, !tbaa !49
  br label %18

18:                                               ; preds = %42, %15
  %19 = load i32, ptr %8, align 4, !tbaa !49
  %20 = icmp slt i32 %19, 3
  br i1 %20, label %22, label %21

21:                                               ; preds = %18
  store i32 5, ptr %7, align 4
  call void @llvm.lifetime.end.p0(i64 4, ptr %8) #12
  br label %45

22:                                               ; preds = %18
  call void @llvm.lifetime.start.p0(i64 16, ptr %9) #12
  %23 = load ptr, ptr %4, align 8, !tbaa !4
  %24 = load i32, ptr %6, align 4, !tbaa !49
  %25 = call { ptr, i64 } @_ZNK4pbrt12SquareMatrixILi3EEixEi(ptr noundef nonnull align 4 dereferenceable(36) %23, i32 noundef %24)
  %26 = getelementptr inbounds nuw { ptr, i64 }, ptr %9, i32 0, i32 0
  %27 = extractvalue { ptr, i64 } %25, 0
  store ptr %27, ptr %26, align 8
  %28 = getelementptr inbounds nuw { ptr, i64 }, ptr %9, i32 0, i32 1
  %29 = extractvalue { ptr, i64 } %25, 1
  store i64 %29, ptr %28, align 8
  %30 = load i32, ptr %8, align 4, !tbaa !49
  %31 = sext i32 %30 to i64
  %32 = call noundef nonnull align 4 dereferenceable(4) ptr @_ZN4pstd4spanIKfEixEm(ptr noundef nonnull align 8 dereferenceable(16) %9, i64 noundef %31)
  %33 = load float, ptr %32, align 4, !tbaa !9
  %34 = load ptr, ptr %5, align 8, !tbaa !26
  %35 = load i32, ptr %8, align 4, !tbaa !49
  %36 = call noundef float @_ZNK4pbrt3XYZixEi(ptr noundef nonnull align 4 dereferenceable(12) %34, i32 noundef %35)
  %37 = fmul float %33, %36
  %38 = load i32, ptr %6, align 4, !tbaa !49
  %39 = call noundef nonnull align 4 dereferenceable(4) ptr @_ZN4pbrt3RGBixEi(ptr noundef nonnull align 4 dereferenceable(12) %3, i32 noundef %38)
  %40 = load float, ptr %39, align 4, !tbaa !9
  %41 = fadd float %40, %37
  store float %41, ptr %39, align 4, !tbaa !9
  call void @llvm.lifetime.end.p0(i64 16, ptr %9) #12
  br label %42

42:                                               ; preds = %22
  %43 = load i32, ptr %8, align 4, !tbaa !49
  %44 = add nsw i32 %43, 1
  store i32 %44, ptr %8, align 4, !tbaa !49
  br label %18, !llvm.loop !246

45:                                               ; preds = %21
  br label %46

46:                                               ; preds = %45
  %47 = load i32, ptr %6, align 4, !tbaa !49
  %48 = add nsw i32 %47, 1
  store i32 %48, ptr %6, align 4, !tbaa !49
  br label %11, !llvm.loop !247

49:                                               ; preds = %14
  call void @llvm.memcpy.p0.p0.i64(ptr align 8 %10, ptr align 4 %3, i64 12, i1 false)
  %50 = load { <2 x float>, float }, ptr %10, align 8
  ret { <2 x float>, float } %50
}

; Function Attrs: mustprogress uwtable
define linkonce_odr dso_local { <2 x float>, float } @_ZNK4pbrt13RGBColorSpace5ToRGBENS_3XYZE(ptr noundef nonnull align 8 dereferenceable(152) %0, <2 x float> %1, float %2) #6 comdat align 2 {
  %4 = alloca %"class.pbrt::RGB", align 4
  %5 = alloca %"class.pbrt::XYZ", align 4
  %6 = alloca { <2 x float>, float }, align 4
  %7 = alloca ptr, align 8
  %8 = alloca { <2 x float>, float }, align 8
  %9 = alloca { <2 x float>, float }, align 8
  %10 = getelementptr inbounds nuw { <2 x float>, float }, ptr %6, i32 0, i32 0
  store <2 x float> %1, ptr %10, align 4
  %11 = getelementptr inbounds nuw { <2 x float>, float }, ptr %6, i32 0, i32 1
  store float %2, ptr %11, align 4
  call void @llvm.memcpy.p0.p0.i64(ptr align 4 %5, ptr align 4 %6, i64 12, i1 false)
  store ptr %0, ptr %7, align 8, !tbaa !124
  %12 = load ptr, ptr %7, align 8
  %13 = getelementptr inbounds nuw %"class.pbrt::RGBColorSpace", ptr %12, i32 0, i32 6
  %14 = call { <2 x float>, float } @_ZN4pbrt3MulINS_3RGBELi3ENS_3XYZEEET_RKNS_12SquareMatrixIXT0_EEERKT1_(ptr noundef nonnull align 4 dereferenceable(36) %13, ptr noundef nonnull align 4 dereferenceable(12) %5)
  store { <2 x float>, float } %14, ptr %8, align 8
  call void @llvm.memcpy.p0.p0.i64(ptr align 4 %4, ptr align 8 %8, i64 12, i1 false)
  call void @llvm.memcpy.p0.p0.i64(ptr align 8 %9, ptr align 4 %4, i64 12, i1 false)
  %15 = load { <2 x float>, float }, ptr %9, align 8
  ret { <2 x float>, float } %15
}

; Function Attrs: mustprogress uwtable
define dso_local { <2 x float>, float } @_ZNK4pbrt15SampledSpectrum5ToRGBERKNS_18SampledWavelengthsERKNS_13RGBColorSpaceE(ptr noundef nonnull align 4 dereferenceable(16) %0, ptr noundef nonnull align 4 dereferenceable(32) %1, ptr noundef nonnull align 8 dereferenceable(152) %2) #6 align 2 {
  %4 = alloca %"class.pbrt::RGB", align 4
  %5 = alloca ptr, align 8
  %6 = alloca ptr, align 8
  %7 = alloca ptr, align 8
  %8 = alloca %"class.pbrt::XYZ", align 4
  %9 = alloca { <2 x float>, float }, align 8
  %10 = alloca %"class.pbrt::XYZ", align 4
  %11 = alloca { <2 x float>, float }, align 4
  %12 = alloca { <2 x float>, float }, align 8
  %13 = alloca { <2 x float>, float }, align 8
  store ptr %0, ptr %5, align 8, !tbaa !109
  store ptr %1, ptr %6, align 8, !tbaa !105
  store ptr %2, ptr %7, align 8, !tbaa !124
  %14 = load ptr, ptr %5, align 8
  call void @llvm.lifetime.start.p0(i64 12, ptr %8) #12
  %15 = load ptr, ptr %6, align 8, !tbaa !105
  %16 = call { <2 x float>, float } @_ZNK4pbrt15SampledSpectrum5ToXYZERKNS_18SampledWavelengthsE(ptr noundef nonnull align 4 dereferenceable(16) %14, ptr noundef nonnull align 4 dereferenceable(32) %15)
  store { <2 x float>, float } %16, ptr %9, align 8
  call void @llvm.memcpy.p0.p0.i64(ptr align 4 %8, ptr align 8 %9, i64 12, i1 false)
  %17 = load ptr, ptr %7, align 8, !tbaa !124
  call void @llvm.memcpy.p0.p0.i64(ptr align 4 %10, ptr align 4 %8, i64 12, i1 false), !tbaa.struct !32
  call void @llvm.memcpy.p0.p0.i64(ptr align 4 %11, ptr align 4 %10, i64 12, i1 false)
  %18 = getelementptr inbounds nuw { <2 x float>, float }, ptr %11, i32 0, i32 0
  %19 = load <2 x float>, ptr %18, align 4
  %20 = getelementptr inbounds nuw { <2 x float>, float }, ptr %11, i32 0, i32 1
  %21 = load float, ptr %20, align 4
  %22 = call { <2 x float>, float } @_ZNK4pbrt13RGBColorSpace5ToRGBENS_3XYZE(ptr noundef nonnull align 8 dereferenceable(152) %17, <2 x float> %19, float %21)
  store { <2 x float>, float } %22, ptr %12, align 8
  call void @llvm.memcpy.p0.p0.i64(ptr align 4 %4, ptr align 8 %12, i64 12, i1 false)
  call void @llvm.lifetime.end.p0(i64 12, ptr %8) #12
  call void @llvm.memcpy.p0.p0.i64(ptr align 8 %13, ptr align 4 %4, i64 12, i1 false)
  %23 = load { <2 x float>, float }, ptr %13, align 8
  ret { <2 x float>, float } %23
}