; Function Attrs: mustprogress nounwind uwtable
define dso_local { <2 x float>, float } @_ZNK4pbrt15SampledSpectrum5ToRGBERKNS_18SampledWavelengthsERKNS_13RGBColorSpaceE(ptr noundef nonnull readonly align 4 captures(none) dereferenceable(16) %0, ptr noundef nonnull readonly align 4 captures(none) dereferenceable(32) %1, ptr noundef nonnull readonly align 8 captures(none) dereferenceable(152) %2) local_unnamed_addr #10 align 2 {
  %4 = tail call { <2 x float>, float } @_ZNK4pbrt15SampledSpectrum5ToXYZERKNS_18SampledWavelengthsE(ptr noundef nonnull align 4 dereferenceable(16) %0, ptr noundef nonnull align 4 dereferenceable(32) %1)
  %.fca.0.extract7 = extractvalue { <2 x float>, float } %4, 0
  %.fca.1.extract8 = extractvalue { <2 x float>, float } %4, 1
  %5 = getelementptr inbounds nuw i8, ptr %2, i64 108
  %.sroa.0.0.vec.extract13.i = extractelement <2 x float> %.fca.0.extract7, i64 0
  %.sroa.0.4.vec.extract17.i = extractelement <2 x float> %.fca.0.extract7, i64 1
  br label %6

6:                                                ; preds = %.split.i.i, %3
  %7 = phi float [ 0.000000e+00, %3 ], [ %28, %.split.i.i ]
  %8 = phi float [ 0.000000e+00, %3 ], [ %29, %.split.i.i ]
  %9 = phi float [ 0.000000e+00, %3 ], [ %30, %.split.i.i ]
  %indvars.iv42.i.i = phi i64 [ 0, %3 ], [ %indvars.iv.next43.i.i, %.split.i.i ]
  %10 = trunc nuw nsw i64 %indvars.iv42.i.i to i32
  %11 = getelementptr inbounds nuw [3 x [3 x float]], ptr %5, i64 0, i64 %indvars.iv42.i.i
  switch i32 %10, label %_ZN4pbrt3RGBixEi.exit.split.i.i [
    i32 0, label %_ZN4pbrt3RGBixEi.exit.split.us.i.i
    i32 1, label %_ZN4pbrt3RGBixEi.exit.split.us21.i.i
  ]

_ZN4pbrt3RGBixEi.exit.split.us.i.i:               ; preds = %6, %_ZNK4pbrt3XYZixEi.exit.us.i.i
  %indvars.iv34.i.i = phi i64 [ %indvars.iv.next35.i.i, %_ZNK4pbrt3XYZixEi.exit.us.i.i ], [ 0, %6 ]
  %12 = phi float [ %19, %_ZNK4pbrt3XYZixEi.exit.us.i.i ], [ 0.000000e+00, %6 ]
  %13 = getelementptr inbounds nuw float, ptr %11, i64 %indvars.iv34.i.i
  %14 = load float, ptr %13, align 4, !tbaa !16
  %15 = trunc nuw nsw i64 %indvars.iv34.i.i to i32
  switch i32 %15, label %17 [
    i32 0, label %_ZNK4pbrt3XYZixEi.exit.us.i.i
    i32 1, label %16
  ]

16:                                               ; preds = %_ZN4pbrt3RGBixEi.exit.split.us.i.i
  br label %_ZNK4pbrt3XYZixEi.exit.us.i.i

17:                                               ; preds = %_ZN4pbrt3RGBixEi.exit.split.us.i.i
  br label %_ZNK4pbrt3XYZixEi.exit.us.i.i

_ZNK4pbrt3XYZixEi.exit.us.i.i:                    ; preds = %17, %16, %_ZN4pbrt3RGBixEi.exit.split.us.i.i
  %.0.in.i.us.i.sroa.speculated.i = phi float [ %.sroa.0.4.vec.extract17.i, %16 ], [ %.fca.1.extract8, %17 ], [ %.sroa.0.0.vec.extract13.i, %_ZN4pbrt3RGBixEi.exit.split.us.i.i ]
  %18 = fmul float %14, %.0.in.i.us.i.sroa.speculated.i
  %19 = fadd float %12, %18
  %indvars.iv.next35.i.i = add nuw nsw i64 %indvars.iv34.i.i, 1
  %exitcond37.not.i.i = icmp eq i64 %indvars.iv.next35.i.i, 3
  br i1 %exitcond37.not.i.i, label %.split.i.i, label %_ZN4pbrt3RGBixEi.exit.split.us.i.i, !llvm.loop !157

_ZN4pbrt3RGBixEi.exit.split.us21.i.i:             ; preds = %6, %_ZNK4pbrt3XYZixEi.exit.us23.i.i
  %indvars.iv.i.i = phi i64 [ %indvars.iv.next.i.i, %_ZNK4pbrt3XYZixEi.exit.us23.i.i ], [ 0, %6 ]
  %20 = phi float [ %27, %_ZNK4pbrt3XYZixEi.exit.us23.i.i ], [ 0.000000e+00, %6 ]
  %21 = getelementptr inbounds nuw float, ptr %11, i64 %indvars.iv.i.i
  %22 = load float, ptr %21, align 4, !tbaa !16
  %23 = trunc nuw nsw i64 %indvars.iv.i.i to i32
  switch i32 %23, label %25 [
    i32 0, label %_ZNK4pbrt3XYZixEi.exit.us23.i.i
    i32 1, label %24
  ]

24:                                               ; preds = %_ZN4pbrt3RGBixEi.exit.split.us21.i.i
  br label %_ZNK4pbrt3XYZixEi.exit.us23.i.i

25:                                               ; preds = %_ZN4pbrt3RGBixEi.exit.split.us21.i.i
  br label %_ZNK4pbrt3XYZixEi.exit.us23.i.i

_ZNK4pbrt3XYZixEi.exit.us23.i.i:                  ; preds = %25, %24, %_ZN4pbrt3RGBixEi.exit.split.us21.i.i
  %.0.in.i.us24.i.sroa.speculated.i = phi float [ %.sroa.0.4.vec.extract17.i, %24 ], [ %.fca.1.extract8, %25 ], [ %.sroa.0.0.vec.extract13.i, %_ZN4pbrt3RGBixEi.exit.split.us21.i.i ]
  %26 = fmul float %22, %.0.in.i.us24.i.sroa.speculated.i
  %27 = fadd float %20, %26
  %indvars.iv.next.i.i = add nuw nsw i64 %indvars.iv.i.i, 1
  %exitcond.not.i.i = icmp eq i64 %indvars.iv.next.i.i, 3
  br i1 %exitcond.not.i.i, label %.split.i.i, label %_ZN4pbrt3RGBixEi.exit.split.us21.i.i, !llvm.loop !157

.split.i.i:                                       ; preds = %_ZNK4pbrt3XYZixEi.exit.us23.i.i, %_ZNK4pbrt3XYZixEi.exit.us.i.i, %_ZNK4pbrt3XYZixEi.exit.i.i
  %28 = phi float [ %38, %_ZNK4pbrt3XYZixEi.exit.i.i ], [ %7, %_ZNK4pbrt3XYZixEi.exit.us.i.i ], [ %7, %_ZNK4pbrt3XYZixEi.exit.us23.i.i ]
  %29 = phi float [ %8, %_ZNK4pbrt3XYZixEi.exit.i.i ], [ %19, %_ZNK4pbrt3XYZixEi.exit.us.i.i ], [ %8, %_ZNK4pbrt3XYZixEi.exit.us23.i.i ]
  %30 = phi float [ %9, %_ZNK4pbrt3XYZixEi.exit.i.i ], [ %9, %_ZNK4pbrt3XYZixEi.exit.us.i.i ], [ %27, %_ZNK4pbrt3XYZixEi.exit.us23.i.i ]
  %indvars.iv.next43.i.i = add nuw nsw i64 %indvars.iv42.i.i, 1
  %exitcond45.not.i.i = icmp eq i64 %indvars.iv.next43.i.i, 3
  br i1 %exitcond45.not.i.i, label %_ZNK4pbrt13RGBColorSpace5ToRGBENS_3XYZE.exit, label %6, !llvm.loop !158

_ZN4pbrt3RGBixEi.exit.split.i.i:                  ; preds = %6, %_ZNK4pbrt3XYZixEi.exit.i.i
  %indvars.iv38.i.i = phi i64 [ %indvars.iv.next39.i.i, %_ZNK4pbrt3XYZixEi.exit.i.i ], [ 0, %6 ]
  %31 = phi float [ %38, %_ZNK4pbrt3XYZixEi.exit.i.i ], [ 0.000000e+00, %6 ]
  %32 = getelementptr inbounds nuw float, ptr %11, i64 %indvars.iv38.i.i
  %33 = load float, ptr %32, align 4, !tbaa !16
  %34 = trunc nuw nsw i64 %indvars.iv38.i.i to i32
  switch i32 %34, label %36 [
    i32 0, label %_ZNK4pbrt3XYZixEi.exit.i.i
    i32 1, label %35
  ]

35:                                               ; preds = %_ZN4pbrt3RGBixEi.exit.split.i.i
  br label %_ZNK4pbrt3XYZixEi.exit.i.i

36:                                               ; preds = %_ZN4pbrt3RGBixEi.exit.split.i.i
  br label %_ZNK4pbrt3XYZixEi.exit.i.i

_ZNK4pbrt3XYZixEi.exit.i.i:                       ; preds = %36, %35, %_ZN4pbrt3RGBixEi.exit.split.i.i
  %.0.in.i.i.sroa.speculated.i = phi float [ %.sroa.0.4.vec.extract17.i, %35 ], [ %.fca.1.extract8, %36 ], [ %.sroa.0.0.vec.extract13.i, %_ZN4pbrt3RGBixEi.exit.split.i.i ]
  %37 = fmul float %33, %.0.in.i.i.sroa.speculated.i
  %38 = fadd float %31, %37
  %indvars.iv.next39.i.i = add nuw nsw i64 %indvars.iv38.i.i, 1
  %exitcond41.not.i.i = icmp eq i64 %indvars.iv.next39.i.i, 3
  br i1 %exitcond41.not.i.i, label %.split.i.i, label %_ZN4pbrt3RGBixEi.exit.split.i.i, !llvm.loop !157

_ZNK4pbrt13RGBColorSpace5ToRGBENS_3XYZE.exit:     ; preds = %.split.i.i
  %39 = insertelement <2 x float> poison, float %29, i64 0
  %.sroa.014.i.0.vec.insert22.i = insertelement <2 x float> %39, float %30, i64 1
  %.fca.0.insert.i.i = insertvalue { <2 x float>, float } poison, <2 x float> %.sroa.014.i.0.vec.insert22.i, 0
  %.fca.1.insert.i.i = insertvalue { <2 x float>, float } %.fca.0.insert.i.i, float %28, 1
  ret { <2 x float>, float } %.fca.1.insert.i.i
}